target datalayout = "e-m:e-p270:32:32-p271:32:32-p272:64:64-i64:64-i128:128-f80:128-n8:16:32:64-S128"
target triple = "x86_64-pc-linux-gnu"

%class.Metadata = type { ptr }
%class.ThreadShadow = type <{ ptr, ptr, ptr, i32, [4 x i8] }>
%class.ConstantPool = type <{ %class.Metadata, ptr, ptr, ptr, ptr, ptr, i16, i16, i16, i16, i16, [2 x i8], i32, %union.anon.2, [4 x i8] }>
%union.anon.2 = type { i32 }
%class.Array.3 = type <{ i32, [1 x i16], [2 x i8] }>
%class.anon.61 = type { i8 }

; Function Attrs: mustprogress nounwind uwtable
define linkonce_odr hidden noundef i64 @_ZZN5ArrayItE20base_offset_in_bytesEvENKUlvE_clEv(ptr noundef nonnull align 1 dereferenceable(1) %0) #1 comdat align 2 {
  %2 = alloca ptr, align 8
  %3 = alloca [8 x i8], align 16
  %4 = alloca ptr, align 8
  %5 = alloca ptr, align 8
  store ptr %0, ptr %2, align 8
  %6 = getelementptr inbounds [8 x i8], ptr %3, i64 0, i64 0
  store ptr %6, ptr %4, align 8
  %7 = load ptr, ptr %4, align 8
  %8 = getelementptr inbounds %class.Array.3, ptr %7, i32 0, i32 1
  store ptr %8, ptr %5, align 8
  %9 = load ptr, ptr %5, align 8
  %10 = getelementptr inbounds [8 x i8], ptr %3, i64 0, i64 0
  %11 = ptrtoint ptr %9 to i64
  %12 = ptrtoint ptr %10 to i64
  %13 = sub i64 %11, %12
  ret i64 %13
}

; Function Attrs: mustprogress nounwind uwtable
define linkonce_odr hidden noundef i32 @_ZN5ArrayItE20base_offset_in_bytesEv() #1 comdat align 2 {
  %1 = alloca %class.anon.61, align 1
  %2 = call noundef i64 @_ZZN5ArrayItE20base_offset_in_bytesEvENKUlvE_clEv(ptr noundef nonnull align 1 dereferenceable(1) %1)
  %3 = trunc i64 %2 to i32
  ret i32 %3
}

; Function Attrs: mustprogress nounwind uwtable
define linkonce_odr hidden noundef ptr @_ZNK5ArrayItE4dataEv(ptr noundef nonnull align 4 dereferenceable(6) %0) #1 comdat align 2 {
  %2 = alloca ptr, align 8
  store ptr %0, ptr %2, align 8
  %3 = load ptr, ptr %2, align 8
  %4 = call noundef i32 @_ZN5ArrayItE20base_offset_in_bytesEv()
  %5 = sext i32 %4 to i64
  %6 = getelementptr inbounds i8, ptr %3, i64 %5
  ret ptr %6
}

; Function Attrs: mustprogress nounwind uwtable
define linkonce_odr hidden noundef i32 @_Z21build_int_from_shortstt(i16 noundef zeroext %0, i16 noundef zeroext %1) #1 comdat {
  %3 = alloca i16, align 2
  %4 = alloca i16, align 2
  store i16 %0, ptr %3, align 2
  store i16 %1, ptr %4, align 2
  %5 = load i16, ptr %4, align 2
  %6 = zext i16 %5 to i32
  %7 = shl i32 %6, 16
  %8 = load i16, ptr %3, align 2
  %9 = zext i16 %8 to i32
  %10 = or i32 %7, %9
  ret i32 %10
}

; Function Attrs: mustprogress nounwind uwtable
define linkonce_odr hidden noundef zeroext i16 @_ZNK5ArrayItE2atEi(ptr noundef nonnull align 4 dereferenceable(6) %0, i32 noundef %1) #1 comdat align 2 {
  %3 = alloca ptr, align 8
  %4 = alloca i32, align 4
  store ptr %0, ptr %3, align 8
  store i32 %1, ptr %4, align 4
  %5 = load ptr, ptr %3, align 8
  %6 = call noundef ptr @_ZNK5ArrayItE4dataEv(ptr noundef nonnull align 4 dereferenceable(6) %5)
  %7 = load i32, ptr %4, align 4
  %8 = sext i32 %7 to i64
  %9 = getelementptr inbounds i16, ptr %6, i64 %8
  %10 = load i16, ptr %9, align 2
  ret i16 %10
}

; Function Attrs: mustprogress nounwind uwtable
define linkonce_odr hidden noundef zeroext i16 @_ZN12ConstantPool25operand_argument_count_atEi(ptr noundef nonnull align 8 dereferenceable(68) %0, i32 noundef %1) #1 comdat align 2 {
  %3 = alloca ptr, align 8
  %4 = alloca i32, align 4
  %5 = alloca i32, align 4
  %6 = alloca i16, align 2
  store ptr %0, ptr %3, align 8
  store i32 %1, ptr %4, align 4
  %7 = load ptr, ptr %3, align 8
  %8 = load i32, ptr %4, align 4
  %9 = call noundef i32 @_ZN12ConstantPool17operand_offset_atEi(ptr noundef nonnull align 8 dereferenceable(68) %7, i32 noundef %8)
  store i32 %9, ptr %5, align 4
  %10 = call noundef ptr @_ZNK12ConstantPool8operandsEv(ptr noundef nonnull align 8 dereferenceable(68) %7)
  %11 = load i32, ptr %5, align 4
  %12 = add nsw i32 %11, 1
  %13 = call noundef zeroext i16 @_ZNK5ArrayItE2atEi(ptr noundef nonnull align 4 dereferenceable(6) %10, i32 noundef %12)
  store i16 %13, ptr %6, align 2
  %14 = load i16, ptr %6, align 2
  ret i16 %14
}

; Function Attrs: mustprogress nounwind uwtable
define linkonce_odr hidden noundef i32 @_ZN12ConstantPool17operand_offset_atEi(ptr noundef nonnull align 8 dereferenceable(68) %0, i32 noundef %1) #1 comdat align 2 {
  %3 = alloca ptr, align 8
  %4 = alloca i32, align 4
  store ptr %0, ptr %3, align 8
  store i32 %1, ptr %4, align 4
  %5 = load ptr, ptr %3, align 8
  %6 = call noundef ptr @_ZNK12ConstantPool8operandsEv(ptr noundef nonnull align 8 dereferenceable(68) %5)
  %7 = load i32, ptr %4, align 4
  %8 = call noundef i32 @_ZN12ConstantPool17operand_offset_atEP5ArrayItEi(ptr noundef %6, i32 noundef %7)
  ret i32 %8
}

; Function Attrs: mustprogress nounwind uwtable
define linkonce_odr hidden noundef i32 @_ZN12ConstantPool17operand_offset_atEP5ArrayItEi(ptr noundef %0, i32 noundef %1) #1 comdat align 2 {
  %3 = alloca ptr, align 8
  %4 = alloca i32, align 4
  %5 = alloca i32, align 4
  %6 = alloca i32, align 4
  store ptr %0, ptr %3, align 8
  store i32 %1, ptr %4, align 4
  %7 = load i32, ptr %4, align 4
  %8 = mul nsw i32 %7, 2
  store i32 %8, ptr %5, align 4
  %9 = load ptr, ptr %3, align 8
  %10 = load i32, ptr %5, align 4
  %11 = add nsw i32 %10, 0
  %12 = call noundef zeroext i16 @_ZNK5ArrayItE2atEi(ptr noundef nonnull align 4 dereferenceable(6) %9, i32 noundef %11)
  %13 = load ptr, ptr %3, align 8
  %14 = load i32, ptr %5, align 4
  %15 = add nsw i32 %14, 1
  %16 = call noundef zeroext i16 @_ZNK5ArrayItE2atEi(ptr noundef nonnull align 4 dereferenceable(6) %13, i32 noundef %15)
  %17 = call noundef i32 @_Z21build_int_from_shortstt(i16 noundef zeroext %12, i16 noundef zeroext %16)
  store i32 %17, ptr %6, align 4
  %18 = load i32, ptr %6, align 4
  ret i32 %18
}

; Function Attrs: mustprogress nounwind uwtable
define linkonce_odr hidden noundef zeroext i1 @_ZNK12ThreadShadow21has_pending_exceptionEv(ptr noundef nonnull align 8 dereferenceable(28) %0) #1 comdat align 2 {
  %2 = alloca ptr, align 8
  store ptr %0, ptr %2, align 8
  %3 = load ptr, ptr %2, align 8
  %4 = getelementptr inbounds %class.ThreadShadow, ptr %3, i32 0, i32 1
  %5 = load ptr, ptr %4, align 8
  %6 = icmp ne ptr %5, null
  ret i1 %6
}

; Function Attrs: mustprogress nounwind uwtable
define linkonce_odr hidden noundef i32 @_ZNK5ArrayItE6lengthEv(ptr noundef nonnull align 4 dereferenceable(6) %0) #1 comdat align 2 {
  %2 = alloca ptr, align 8
  store ptr %0, ptr %2, align 8
  %3 = load ptr, ptr %2, align 8
  %4 = getelementptr inbounds %class.Array.3, ptr %3, i32 0, i32 0
  %5 = load i32, ptr %4, align 4
  ret i32 %5
}

; Function Attrs: mustprogress nounwind uwtable
define linkonce_odr hidden noundef i32 @_ZN12ConstantPool22operand_next_offset_atEi(ptr noundef nonnull align 8 dereferenceable(68) %0, i32 noundef %1) #1 comdat align 2 {
  %3 = alloca ptr, align 8
  %4 = alloca i32, align 4
  %5 = alloca i32, align 4
  store ptr %0, ptr %3, align 8
  store i32 %1, ptr %4, align 4
  %6 = load ptr, ptr %3, align 8
  %7 = load i32, ptr %4, align 4
  %8 = call noundef i32 @_ZN12ConstantPool17operand_offset_atEi(ptr noundef nonnull align 8 dereferenceable(68) %6, i32 noundef %7)
  %9 = add nsw i32 %8, 2
  %10 = load i32, ptr %4, align 4
  %11 = call noundef zeroext i16 @_ZN12ConstantPool25operand_argument_count_atEi(ptr noundef nonnull align 8 dereferenceable(68) %6, i32 noundef %10)
  %12 = zext i16 %11 to i32
  %13 = add nsw i32 %9, %12
  store i32 %13, ptr %5, align 4
  %14 = load i32, ptr %5, align 4
  ret i32 %14
}

; Function Attrs: mustprogress nounwind uwtable
define linkonce_odr hidden noundef i32 @_ZN12ConstantPool20operand_array_lengthEP5ArrayItE(ptr noundef %0) #1 comdat align 2 {
  %2 = alloca i32, align 4
  %3 = alloca ptr, align 8
  %4 = alloca i32, align 4
  store ptr %0, ptr %3, align 8
  %5 = load ptr, ptr %3, align 8
  %6 = icmp eq ptr %5, null
  br i1 %6, label %11, label %7

7:                                                ; preds = %1
  %8 = load ptr, ptr %3, align 8
  %9 = call noundef i32 @_ZNK5ArrayItE6lengthEv(ptr noundef nonnull align 4 dereferenceable(6) %8)
  %10 = icmp eq i32 %9, 0
  br i1 %10, label %11, label %12

11:                                               ; preds = %7, %1
  store i32 0, ptr %2, align 4
  br label %17

12:                                               ; preds = %7
  %13 = load ptr, ptr %3, align 8
  %14 = call noundef i32 @_ZN12ConstantPool17operand_offset_atEP5ArrayItEi(ptr noundef %13, i32 noundef 0)
  store i32 %14, ptr %4, align 4
  %15 = load i32, ptr %4, align 4
  %16 = sdiv i32 %15, 2
  store i32 %16, ptr %2, align 4
  br label %17

17:                                               ; preds = %12, %11
  %18 = load i32, ptr %2, align 4
  ret i32 %18
}

; Function Attrs: mustprogress nounwind uwtable
define linkonce_odr hidden noundef ptr @_ZNK12ConstantPool8operandsEv(ptr noundef nonnull align 8 dereferenceable(68) %0) #1 comdat align 2 {
  %2 = alloca ptr, align 8
  store ptr %0, ptr %2, align 8
  %3 = load ptr, ptr %2, align 8
  %4 = getelementptr inbounds %class.ConstantPool, ptr %3, i32 0, i32 4
  %5 = load ptr, ptr %4, align 8
  ret ptr %5
}

; Function Attrs: mustprogress nounwind uwtable
define hidden void @_ZN12ConstantPool15shrink_operandsEiP10JavaThread(ptr noundef nonnull align 8 dereferenceable(68) %0, i32 noundef %1, ptr noundef %2) #1 align 2 {
  %4 = alloca ptr, align 8
  %5 = alloca i32, align 4
  %6 = alloca ptr, align 8
  %7 = alloca i32, align 4
  %8 = alloca i32, align 4
  %9 = alloca i32, align 4
  %10 = alloca i32, align 4
  store ptr %0, ptr %4, align 8
  store i32 %1, ptr %5, align 4
  store ptr %2, ptr %6, align 8
  %11 = load ptr, ptr %4, align 8
  %12 = call noundef ptr @_ZNK12ConstantPool8operandsEv(ptr noundef nonnull align 8 dereferenceable(68) %11)
  %13 = call noundef i32 @_ZN12ConstantPool20operand_array_lengthEP5ArrayItE(ptr noundef %12)
  store i32 %13, ptr %7, align 4
  %14 = load i32, ptr %5, align 4
  %15 = load i32, ptr %7, align 4
  %16 = icmp eq i32 %14, %15
  br i1 %16, label %17, label %18

17:                                               ; preds = %3
  br label %38

18:                                               ; preds = %3
  %19 = load i32, ptr %5, align 4
  %20 = sub nsw i32 %19, 1
  %21 = call noundef i32 @_ZN12ConstantPool22operand_next_offset_atEi(ptr noundef nonnull align 8 dereferenceable(68) %11, i32 noundef %20)
  store i32 %21, ptr %8, align 4
  %22 = load i32, ptr %5, align 4
  %23 = load i32, ptr %7, align 4
  %24 = sub nsw i32 %22, %23
  store i32 %24, ptr %9, align 4
  %25 = load i32, ptr %9, align 4
  %26 = mul nsw i32 2, %25
  %27 = load i32, ptr %8, align 4
  %28 = add nsw i32 %26, %27
  %29 = call noundef ptr @_ZNK12ConstantPool8operandsEv(ptr noundef nonnull align 8 dereferenceable(68) %11)
  %30 = call noundef i32 @_ZNK5ArrayItE6lengthEv(ptr noundef nonnull align 4 dereferenceable(6) %29)
  %31 = sub nsw i32 %28, %30
  store i32 %31, ptr %10, align 4
  %32 = load i32, ptr %9, align 4
  %33 = load i32, ptr %10, align 4
  %34 = load ptr, ptr %6, align 8
  call void @_ZN12ConstantPool15resize_operandsEiiP10JavaThread(ptr noundef nonnull align 8 dereferenceable(68) %11, i32 noundef %32, i32 noundef %33, ptr noundef %34)
  %35 = load ptr, ptr %6, align 8
  %36 = call noundef zeroext i1 @_ZNK12ThreadShadow21has_pending_exceptionEv(ptr noundef nonnull align 8 dereferenceable(28) %35)
  br i1 %36, label %37, label %38

37:                                               ; preds = %18
  br label %38

38:                                               ; preds = %37, %18, %17
  ret void
}