; Function Attrs: mustprogress nounwind uwtable
define hidden void @_ZN12ConstantPool15shrink_operandsEiP10JavaThread(ptr nocapture noundef nonnull align 8 dereferenceable(68) %0, i32 noundef %1, ptr noundef %2) local_unnamed_addr #0 align 2 {
  %4 = getelementptr inbounds i8, ptr %0, i64 32
  %5 = load ptr, ptr %4, align 8
  %6 = icmp eq ptr %5, null
  br i1 %6, label %_ZN12ConstantPool20operand_array_lengthEP5ArrayItE.exit, label %7

7:                                                ; preds = %3
  %8 = load i32, ptr %5, align 4
  %9 = icmp eq i32 %8, 0
  br i1 %9, label %_ZN12ConstantPool20operand_array_lengthEP5ArrayItE.exit, label %10

10:                                               ; preds = %7
  %11 = getelementptr inbounds i8, ptr %5, i64 4
  %12 = load i32, ptr %11, align 2
  %13 = sdiv i32 %12, 2
  br label %_ZN12ConstantPool20operand_array_lengthEP5ArrayItE.exit

_ZN12ConstantPool20operand_array_lengthEP5ArrayItE.exit: ; preds = %3, %7, %10
  %.0.i = phi i32 [ %13, %10 ], [ 0, %7 ], [ 0, %3 ]
  %14 = icmp eq i32 %.0.i, %1
  br i1 %14, label %42, label %15

15:                                               ; preds = %_ZN12ConstantPool20operand_array_lengthEP5ArrayItE.exit
  %16 = shl i32 %1, 1
  %17 = add i32 %16, -2
  %18 = getelementptr inbounds i8, ptr %5, i64 4
  %19 = sext i32 %17 to i64
  %20 = getelementptr inbounds i16, ptr %18, i64 %19
  %21 = load i16, ptr %20, align 2
  %22 = or disjoint i32 %17, 1
  %23 = sext i32 %22 to i64
  %24 = getelementptr inbounds i16, ptr %18, i64 %23
  %25 = load i16, ptr %24, align 2
  %26 = zext i16 %25 to i32
  %27 = shl nuw i32 %26, 16
  %28 = zext i16 %21 to i32
  %29 = or disjoint i32 %27, %28
  %30 = sext i32 %29 to i64
  %31 = getelementptr i16, ptr %18, i64 %30
  %32 = getelementptr i8, ptr %31, i64 2
  %33 = load i16, ptr %32, align 2
  %34 = zext i16 %33 to i32
  %35 = sub nsw i32 %1, %.0.i
  %36 = shl nsw i32 %35, 1
  %37 = load i32, ptr %5, align 4
  %38 = add i32 %36, 2
  %39 = add i32 %38, %34
  %40 = sub i32 %39, %37
  %41 = add i32 %40, %29
  tail call void @_ZN12ConstantPool15resize_operandsEiiP10JavaThread(ptr noundef nonnull align 8 dereferenceable(68) %0, i32 noundef %35, i32 noundef %41, ptr noundef %2)
  br label %42

42:                                               ; preds = %15, %_ZN12ConstantPool20operand_array_lengthEP5ArrayItE.exit
  ret void
}